target datalayout = "e-m:e-p270:32:32-p271:32:32-p272:64:64-i64:64-i128:128-f80:128-n8:16:32:64-S128"
target triple = "x86_64-pc-linux-gnu"

@.str.22 = private unnamed_addr constant [11 x i8] c"TRAILER!!!\00", align 1

; Function Attrs: nounwind uwtable
define internal i32 @archive_write_binary_close(ptr noundef %0) #0 {
  %2 = alloca ptr, align 8
  %3 = alloca i32, align 4
  %4 = alloca ptr, align 8
  store ptr %0, ptr %2, align 8
  %5 = call ptr @archive_entry_new2(ptr noundef null)
  store ptr %5, ptr %4, align 8
  %6 = load ptr, ptr %4, align 8
  call void @archive_entry_set_nlink(ptr noundef %6, i32 noundef 1)
  %7 = load ptr, ptr %4, align 8
  call void @archive_entry_set_size(ptr noundef %7, i64 noundef 0)
  %8 = load ptr, ptr %4, align 8
  call void @archive_entry_set_pathname(ptr noundef %8, ptr noundef @.str.22)
  %9 = load ptr, ptr %2, align 8
  %10 = load ptr, ptr %4, align 8
  %11 = call i32 @write_header(ptr noundef %9, ptr noundef %10)
  store i32 %11, ptr %3, align 4
  %12 = load ptr, ptr %4, align 8
  call void @archive_entry_free(ptr noundef %12)
  %13 = load i32, ptr %3, align 4
  ret i32 %13
}